EXPORTS
_ZN8facebook5react12makeCallbackESt8weak_ptrINS0_8InstanceEERKN5folly7dynamicE
_ZN8facebook5react15CxxNativeModule10getMethodsEv
_ZN8facebook5react15CxxNativeModule12getConstantsEv
_ZN8facebook5react15CxxNativeModule26callSerializableNativeHookEjON5folly7dynamicE
_ZN8facebook5react15CxxNativeModule6invokeEjON5folly7dynamicEi
_ZN8facebook5react15CxxNativeModule7getNameEv
_ZN8facebook5react15CxxNativeModule8lazyInitEv
_ZN8facebook5react4MakeESt8weak_ptrINS0_8InstanceEESsSt8functionIFSt10unique_ptrINS_5xplat6module9CxxModuleESt14default_deleteIS8_EEvEESt10shared_ptrINS0_18MessageQueueThreadEE
_Z17initializeTracingv
_Z20fbsystrace_trace_rawPKcj
_Z21fbsystrace_is_tracingy
_Z22fbsystrace_end_sectiony
_Z25fbsystrace_end_async_flowyPKci
_ZN8facebook5react8Instance12setSourceURLESs
_ZN8facebook5react8Instance13loadRAMBundleESt10unique_ptrINS0_17RAMBundleRegistryESt14default_deleteIS3_EES2_IKNS0_11JSBigStringES4_IS8_EESsb
_ZN8facebook5react8Instance14callJSCallbackEyON5folly7dynamicE
_ZN8facebook5react8Instance14callJSFunctionEOSsS2_ON5folly7dynamicE
_ZN8facebook5react8Instance15loadApplicationESt10unique_ptrINS0_17RAMBundleRegistryESt14default_deleteIS3_EES2_IKNS0_11JSBigStringES4_IS8_EESsOSs
_ZN8facebook5react8Instance15registerModulesEOSt6vectorISt10unique_ptrINS0_12NativeModuleESt14default_deleteIS4_EESaIS7_EE
_ZN8facebook5react8Instance16initializeBridgeESt10unique_ptrINS0_16InstanceCallbackESt14default_deleteIS3_EESt10shared_ptrINS0_23ExecutorDelegateFactoryEES7_INS0_17JSExecutorFactoryEES7_INS0_18MessageQueueThreadEES7_INS0_14ModuleRegistryEE
_ZN8facebook5react8Instance17getModuleRegistryEv
_ZN8facebook5react8Instance17setGlobalVariableESsSt10unique_ptrIKNS0_11JSBigStringESt14default_deleteIS4_EE
_ZN8facebook5react8Instance19loadApplicationSyncESt10unique_ptrINS0_17RAMBundleRegistryESt14default_deleteIS3_EES2_IKNS0_11JSBigStringES4_IS8_EESsRKSs
_ZN8facebook5react8Instance20getJavaScriptContextEv
_ZN8facebook5react8Instance20loadScriptFromStringESt10unique_ptrIKNS0_11JSBigStringESt14default_deleteIS4_EESsbOSs
_ZN8facebook5react8InstanceD1Ev
_ZN8facebook5react8InstanceD2Ev
_ZNK8facebook5react8Instance17getModuleRegistryEv
_ZN8facebook5react15JSBigFileString8fromPathERKSs
_ZN8facebook5react15JSBigFileStringC1Eijl
_ZN8facebook5react15JSBigFileStringC2Eijl
_ZN8facebook5react15JSBigFileStringD0Ev
_ZN8facebook5react15JSBigFileStringD1Ev
_ZN8facebook5react15JSBigFileStringD2Ev
_ZNK8facebook5react15JSBigFileString2fdEv
_ZNK8facebook5react15JSBigFileString4sizeEv
_ZNK8facebook5react15JSBigFileString5c_strEv
_ZN8facebook5react18stringForScriptTagERKNS0_9ScriptTagE
_ZN8facebook5react19parseTypeFromHeaderERKNS0_12BundleHeaderE
_ZN8facebook5react27addNativeTracingLegacyHooksEP15OpaqueJSContext
_ZN8facebook5react35initSamplingProfilerOnMainJSCThreadEP15OpaqueJSContext
_ZN8facebook5react21addNativeTracingHooksEP15OpaqueJSContext
_ZN8facebook5react21jsStringFromBigStringEPK15OpaqueJSContextRKNS0_11JSBigStringE
_ZN8facebook5react28parseNativeRequireParametersERKP15OpaqueJSContextPKPK13OpaqueJSValuej
_ZN8facebook5react18JSIndexedRAMBundle14getStartupCodeEv
_ZN8facebook5react18JSIndexedRAMBundleC1EPKc
_ZN8facebook5react18JSIndexedRAMBundleC2EPKc
_ZNK8facebook5react18JSIndexedRAMBundle10readBundleEPci
_ZNK8facebook5react18JSIndexedRAMBundle10readBundleEPciSt4fposI9mbstate_tE
_ZNK8facebook5react18JSIndexedRAMBundle13getModuleCodeEj
_ZNK8facebook5react18JSIndexedRAMBundle9getModuleEj
_ZN8facebook5react26JSIndexedRAMBundleRegistryC1ESt10unique_ptrINS0_17JSModulesUnbundleESt14default_deleteIS3_EERKSs
_ZN8facebook5react26JSIndexedRAMBundleRegistryC2ESt10unique_ptrINS0_17JSModulesUnbundleESt14default_deleteIS3_EERKSs
_ZNK8facebook5react26JSIndexedRAMBundleRegistry10bundleByIdEj
_ZN8facebook5react16parseMethodCallsEON5folly7dynamicE
_ZN8facebook5react14ModuleRegistry11moduleNamesEv
_ZN8facebook5react14ModuleRegistry15registerModulesESt6vectorISt10unique_ptrINS0_12NativeModuleESt14default_deleteIS4_EESaIS7_EE
_ZN8facebook5react14ModuleRegistry16callNativeMethodEjjON5folly7dynamicEi
_ZN8facebook5react14ModuleRegistry26callSerializableNativeHookEjjON5folly7dynamicE
_ZN8facebook5react14ModuleRegistry26updateModuleNamesFromIndexEj
_ZN8facebook5react14ModuleRegistry9getConfigERKSs
_ZN8facebook5react14ModuleRegistryC1ESt6vectorISt10unique_ptrINS0_12NativeModuleESt14default_deleteIS4_EESaIS7_EESt8functionIFbRKSsEE
_ZN8facebook5react14ModuleRegistryC2ESt6vectorISt10unique_ptrINS0_12NativeModuleESt14default_deleteIS4_EESaIS7_EESt8functionIFbRKSsEE
_ZN8facebook5react16NativeToJsBridge12callFunctionEOSsS2_ON5folly7dynamicE
_ZN8facebook5react16NativeToJsBridge14invokeCallbackEdON5folly7dynamicE
_ZN8facebook5react16NativeToJsBridge15loadApplicationESt10unique_ptrINS0_17RAMBundleRegistryESt14default_deleteIS3_EES2_IKNS0_11JSBigStringES4_IS8_EESsOSs
_ZN8facebook5react16NativeToJsBridge17setGlobalVariableESsSt10unique_ptrIKNS0_11JSBigStringESt14default_deleteIS4_EE
_ZN8facebook5react16NativeToJsBridge18runOnExecutorQueueESt8functionIFvPNS0_10JSExecutorEEE
_ZN8facebook5react16NativeToJsBridge19loadApplicationSyncESt10unique_ptrINS0_17RAMBundleRegistryESt14default_deleteIS3_EES2_IKNS0_11JSBigStringES4_IS8_EESsRKSs
_ZN8facebook5react16NativeToJsBridge20getJavaScriptContextEv
_ZN8facebook5react16NativeToJsBridge7destroyEv
_ZN8facebook5react16NativeToJsBridgeC1EPNS0_17JSExecutorFactoryESt10shared_ptrINS0_16ExecutorDelegateEES4_INS0_14ModuleRegistryEES4_INS0_18MessageQueueThreadEES4_INS0_16InstanceCallbackEE
_ZN8facebook5react16NativeToJsBridgeC2EPNS0_17JSExecutorFactoryESt10shared_ptrINS0_16ExecutorDelegateEES4_INS0_14ModuleRegistryEES4_INS0_18MessageQueueThreadEES4_INS0_16InstanceCallbackEE
_ZN8facebook5react16NativeToJsBridgeD0Ev
_ZN8facebook5react16NativeToJsBridgeD1Ev
_ZN8facebook5react16NativeToJsBridgeD2Ev
_ZN8facebook5react15isOJSCAvailableEv
_ZN8facebook5react11ReactMarker9logMarkerENS1_13ReactMarkerIdE
_ZN8facebook5react17RAMBundleRegistry12jsBundlesDirESs
_ZN8facebook5react17RAMBundleRegistry9getModuleEjj
_ZN8facebook5react17RAMBundleRegistryC1ESt10unique_ptrINS0_17JSModulesUnbundleESt14default_deleteIS3_EE
_ZN8facebook5react17RAMBundleRegistryC2ESt10unique_ptrINS0_17JSModulesUnbundleESt14default_deleteIS3_EE
_ZNK8facebook5react17RAMBundleRegistry9getBundleEj
