EXPORTS
JSPokeSamplingProfiler
JSStartSamplingProfilingOnMainJSCThread
_ZN8facebook5react5Value11fromDynamicEPK15OpaqueJSContextRKN5folly7dynamicE
_ZN8facebook5react5Value8fromJSONERKNS0_6StringE
_ZN8facebook5react5Value9makeErrorEPK15OpaqueJSContextPKcS6_
_ZN8facebook5react5ValueC1EPK15OpaqueJSContextP14OpaqueJSString
_ZN8facebook5react5ValueC1EPK15OpaqueJSContextPK13OpaqueJSValue
_ZN8facebook5react5ValueC2EPK15OpaqueJSContextP14OpaqueJSString
_ZN8facebook5react5ValueC2EPK15OpaqueJSContextPK13OpaqueJSValue
_ZN8facebook5react6Object11setPropertyEPKcRKNS0_5ValueE
_ZN8facebook5react6Object11setPropertyERKNS0_6StringERKNS0_5ValueE
_ZN8facebook5react6Object18setPropertyAtIndexEjRKNS0_5ValueE
_ZN8facebook5react6Object6createEPK15OpaqueJSContext
_ZN8facebook5react6Object8makeDateEPK15OpaqueJSContextNSt6chrono10time_pointINS5_3_V212system_clockENS5_8durationIxSt5ratioILx1ELx1000000000EEEEEE
_ZN8facebook5react6Object9makeArrayEPK15OpaqueJSContextPPK13OpaqueJSValuej
_ZNK8facebook5react5Value12toJSONStringEj
_ZNK8facebook5react5Value7contextEv
_ZNK8facebook5react5Value8asObjectEv
_ZNK8facebook5react5Value8toStringEv
_ZNK8facebook5react6Object11getPropertyEPKc
_ZNK8facebook5react6Object11getPropertyERKNS0_6StringE
_ZNK8facebook5react6Object14callAsFunctionEiPKPK13OpaqueJSValue
_ZNK8facebook5react6Object14callAsFunctionEP13OpaqueJSValueiPKPKS2_
_ZNK8facebook5react6Object14callAsFunctionERKS1_iPKPK13OpaqueJSValue
_ZNK8facebook5react6Object14callAsFunctionERKS1_St16initializer_listIPK13OpaqueJSValueE
_ZNK8facebook5react6Object14callAsFunctionESt16initializer_listIPK13OpaqueJSValueE
_ZNK8facebook5react6Object16getPropertyNamesEv
_ZNK8facebook5react6Object17callAsConstructorESt16initializer_listIPK13OpaqueJSValueE
_ZNK8facebook5react6Object18getPropertyAtIndexEj
_ZNK8facebook5react6Object9toJSONMapEv
_ZNK8facebook5react6ObjectcvNS0_5ValueEEv
_ZN8facebook5react7unicode11utf16toUTF8EPKtj
_ZN8facebook5react11JSException12buildMessageEPK15OpaqueJSContextPK13OpaqueJSValueP14OpaqueJSStringPKc
_ZN8facebook5react12makeFunctionEP15OpaqueJSContextPKcPFPK13OpaqueJSValuePKS1_PS5_SA_jPKS7_PS7_E
_ZN8facebook5react12makeFunctionEPK15OpaqueJSContextPKcSt8functionIFPK13OpaqueJSValueS3_PS7_jPKS9_EE
_ZN8facebook5react12removeGlobalEP15OpaqueJSContextPKc
_ZN8facebook5react13JSContextLockC1EP15OpaqueJSContext
_ZN8facebook5react13JSContextLockC2EP15OpaqueJSContext
_ZN8facebook5react13JSContextLockD1Ev
_ZN8facebook5react13JSContextLockD2Ev
_ZN8facebook5react14evaluateScriptEPK15OpaqueJSContextP14OpaqueJSStringS5_
_ZN8facebook5react18installGlobalProxyEP15OpaqueJSContextPKcPFPK13OpaqueJSValuePKS1_PS5_P14OpaqueJSStringPS7_E
_ZN8facebook5react21installGlobalFunctionEP15OpaqueJSContextPKcPFPK13OpaqueJSValuePKS1_PS5_SA_jPKS7_PS7_E
_ZN8facebook5react21installGlobalFunctionEP15OpaqueJSContextPKcSt8functionIFPK13OpaqueJSValuePKS1_PS6_jPKS8_EE
_ZN8facebook5react37translatePendingCppExceptionToJSErrorEPK15OpaqueJSContextP13OpaqueJSValue
_ZN8facebook5react37translatePendingCppExceptionToJSErrorEPK15OpaqueJSContextPKc