EXPORTS
_ZN17double_conversion6Bignum11PlusCompareERKS0_S2_S2_
_ZN17double_conversion6Bignum12AssignBignumERKS0_
_ZN17double_conversion6Bignum12AssignUInt16Et
_ZN17double_conversion6Bignum12AssignUInt64Ey
_ZN17double_conversion6Bignum13SubtractTimesERKS0_i
_ZN17double_conversion6Bignum14SubtractBignumERKS0_
_ZN17double_conversion6Bignum15AssignHexStringENS_6VectorIKcEE
_ZN17double_conversion6Bignum15BigitsShiftLeftEi
_ZN17double_conversion6Bignum16MultiplyByUInt32Ej
_ZN17double_conversion6Bignum16MultiplyByUInt64Ey
_ZN17double_conversion6Bignum17AssignPowerUInt16Eti
_ZN17double_conversion6Bignum19AssignDecimalStringENS_6VectorIKcEE
_ZN17double_conversion6Bignum20MultiplyByPowerOfTenEi
_ZN17double_conversion6Bignum21DivideModuloIntBignumERKS0_
_ZN17double_conversion6Bignum4ZeroEv
_ZN17double_conversion6Bignum5AlignERKS0_
_ZN17double_conversion6Bignum5ClampEv
_ZN17double_conversion6Bignum6SquareEv
_ZN17double_conversion6Bignum7CompareERKS0_S2_
_ZN17double_conversion6Bignum9AddBignumERKS0_
_ZN17double_conversion6Bignum9AddUInt64Ey
_ZN17double_conversion6Bignum9ShiftLeftEi
_ZN17double_conversion6BignumC1Ev
_ZN17double_conversion6BignumC2Ev
_ZNK17double_conversion6Bignum11ToHexStringEPci
_ZNK17double_conversion6Bignum7BigitAtEi
_ZNK17double_conversion6Bignum9IsClampedEv
_ZN17double_conversion10BignumDtoaEdNS_14BignumDtoaModeEiNS_6VectorIcEEPiS3_
_ZN17double_conversion16PowersOfTenCache32GetCachedPowerForDecimalExponentEiPNS_5DiyFpEPi
_ZN17double_conversion16PowersOfTenCache36GetCachedPowerForBinaryExponentRangeEiiPNS_5DiyFpEPi
_ZN17double_conversion5DiyFp8MultiplyERKS0_
_ZN17double_conversion23DoubleToStringConverter13DoubleToAsciiEdNS0_8DtoaModeEiPciPbPiS4_
_ZN17double_conversion23DoubleToStringConverter19EcmaScriptConverterEv
_ZN17double_conversion23StringToDoubleConverter12StringToIeeeEPKciPib
_ZNK17double_conversion23DoubleToStringConverter11ToPrecisionEdiPNS_13StringBuilderE
_ZNK17double_conversion23DoubleToStringConverter13ToExponentialEdiPNS_13StringBuilderE
_ZNK17double_conversion23DoubleToStringConverter19HandleSpecialValuesEdPNS_13StringBuilderE
_ZNK17double_conversion23DoubleToStringConverter20ToShortestIeeeNumberEdPNS_13StringBuilderENS0_8DtoaModeE
_ZNK17double_conversion23DoubleToStringConverter27CreateDecimalRepresentationEPKciiiPNS_13StringBuilderE
_ZNK17double_conversion23DoubleToStringConverter31CreateExponentialRepresentationEPKciiPNS_13StringBuilderE
_ZNK17double_conversion23DoubleToStringConverter7ToFixedEdiPNS_13StringBuilderE
_ZN17double_conversion8FastDtoaEdNS_12FastDtoaModeEiNS_6VectorIcEEPiS3_
_ZN17double_conversion13FastFixedDtoaEdiNS_6VectorIcEEPiS2_
_ZN17double_conversion6StrtodENS_6VectorIKcEEi
_ZN17double_conversion6StrtofENS_6VectorIKcEEi