EXPORTS
_ZN8facebook3jni13WeakReferenceC1EP8_jobject
_ZN8facebook3jni13WeakReferenceC2EP8_jobject
_ZN8facebook3jni13WeakReferenceD0Ev
_ZN8facebook3jni13WeakReferenceD1Ev
_ZN8facebook3jni13WeakReferenceD2Ev
_ZN8facebook3jni21ResolvedWeakReferenceC1EP8_jobject
_ZN8facebook3jni21ResolvedWeakReferenceC1ERKNS_6RefPtrINS0_13WeakReferenceEEE
_ZN8facebook3jni21ResolvedWeakReferenceC2EP8_jobject
_ZN8facebook3jni21ResolvedWeakReferenceC2ERKNS_6RefPtrINS0_13WeakReferenceEEE
_ZN8facebook3jni21ResolvedWeakReferenceD1Ev
_ZN8facebook3jni21ResolvedWeakReferenceD2Ev
_ZN8facebook3jni13JniLocalScopeC1EP7_JNIEnvi
_ZN8facebook3jni13JniLocalScopeC2EP7_JNIEnvi
_ZN8facebook3jni13JniLocalScopeD1Ev
_ZN8facebook3jni13JniLocalScopeD2Ev
_Z16initialize_fbjniv
_ZN8facebook3jni11fromJStringEP7_JNIEnvP8_jstring
_ZN8facebook3jni11LocalStringC1EPKc
_ZN8facebook3jni11LocalStringC1ERKSs
_ZN8facebook3jni11LocalStringC2EPKc
_ZN8facebook3jni11LocalStringC2ERKSs
_ZN8facebook3jni11LocalStringD1Ev
_ZN8facebook3jni11LocalStringD2Ev
_ZN8facebook3jni6detail11utf16toUTF8EPKtj
_ZN8facebook3jni6detail14modifiedLengthEPKhPj
_ZN8facebook3jni6detail14modifiedLengthERKSs
_ZN8facebook3jni6detail17utf16toUTF8LengthEPKtj
_ZN8facebook3jni6detail18modifiedUTF8ToUTF8EPKhj
_ZN8facebook3jni6detail18utf8ToModifiedUTF8EPKhjPhj
_ZN8facebook14throwExceptionEP7_JNIEnvPKcS3_Pc
_ZN8facebook16findClassOrThrowEP7_JNIEnvPKc
_ZN8facebook16throwIOExceptionEP7_JNIEnvPKcz
_ZN8facebook17getFieldIdOrThrowEP7_JNIEnvP7_jclassPKcS5_
_ZN8facebook18getMethodIdOrThrowEP7_JNIEnvP7_jclassPKcS5_
_ZN8facebook19throwAssertionErrorEP7_JNIEnvPKcz
_ZN8facebook20throwNoClassDefErrorEP7_JNIEnvPKcz
_ZN8facebook21throwOutOfMemoryErrorEP7_JNIEnvPKcz
_ZN8facebook21throwRuntimeExceptionEP7_JNIEnvPKcz
_ZN8facebook26throwIllegalStateExceptionEP7_JNIEnvPKcz
_ZN8facebook29throwIllegalArgumentExceptionEP7_JNIEnvPKcz
_ZN8facebook3jni16HybridDataOnLoadEv
_ZN8facebook3jni6detail10HybridData6createEv
_ZN8facebook3jni10initializeEP7_JavaVMOSt8functionIFvvEE
_ZN8facebook3jni12make_jstringEPKc
_ZN8facebook3jni14findClassLocalEPKc
_ZN8facebook3jni14make_int_arrayEi
_ZN8facebook3jni15findClassStaticEPKc
_ZN8facebook3jni15JPrimitiveArrayIP10_jintArrayE11getElementsEPh
_ZN8facebook3jni15JPrimitiveArrayIP10_jintArrayE15releaseElementsEPii
_ZN8facebook3jni15JPrimitiveArrayIP10_jintArrayE8newArrayEj
_ZN8facebook3jni15JPrimitiveArrayIP10_jintArrayE9getRegionEiiPi
_ZN8facebook3jni15JPrimitiveArrayIP10_jintArrayE9setRegionEiiPKi
_ZN8facebook3jni15JPrimitiveArrayIP11_jbyteArrayE11getElementsEPh
_ZN8facebook3jni15JPrimitiveArrayIP11_jbyteArrayE15releaseElementsEPai
_ZN8facebook3jni15JPrimitiveArrayIP11_jbyteArrayE8newArrayEj
_ZN8facebook3jni15JPrimitiveArrayIP11_jbyteArrayE9getRegionEiiPa
_ZN8facebook3jni15JPrimitiveArrayIP11_jbyteArrayE9setRegionEiiPKa
_ZN8facebook3jni15JPrimitiveArrayIP11_jcharArrayE11getElementsEPh
_ZN8facebook3jni15JPrimitiveArrayIP11_jcharArrayE15releaseElementsEPti
_ZN8facebook3jni15JPrimitiveArrayIP11_jcharArrayE8newArrayEj
_ZN8facebook3jni15JPrimitiveArrayIP11_jcharArrayE9getRegionEiiPt
_ZN8facebook3jni15JPrimitiveArrayIP11_jcharArrayE9setRegionEiiPKt
_ZN8facebook3jni15JPrimitiveArrayIP11_jlongArrayE11getElementsEPh
_ZN8facebook3jni15JPrimitiveArrayIP11_jlongArrayE15releaseElementsEPxi
_ZN8facebook3jni15JPrimitiveArrayIP11_jlongArrayE8newArrayEj
_ZN8facebook3jni15JPrimitiveArrayIP11_jlongArrayE9getRegionEiiPx
_ZN8facebook3jni15JPrimitiveArrayIP11_jlongArrayE9setRegionEiiPKx
_ZN8facebook3jni15JPrimitiveArrayIP12_jfloatArrayE11getElementsEPh
_ZN8facebook3jni15JPrimitiveArrayIP12_jfloatArrayE15releaseElementsEPfi
_ZN8facebook3jni15JPrimitiveArrayIP12_jfloatArrayE8newArrayEj
_ZN8facebook3jni15JPrimitiveArrayIP12_jfloatArrayE9getRegionEiiPf
_ZN8facebook3jni15JPrimitiveArrayIP12_jfloatArrayE9setRegionEiiPKf
_ZN8facebook3jni15JPrimitiveArrayIP12_jshortArrayE11getElementsEPh
_ZN8facebook3jni15JPrimitiveArrayIP12_jshortArrayE15releaseElementsEPsi
_ZN8facebook3jni15JPrimitiveArrayIP12_jshortArrayE8newArrayEj
_ZN8facebook3jni15JPrimitiveArrayIP12_jshortArrayE9getRegionEiiPs
_ZN8facebook3jni15JPrimitiveArrayIP12_jshortArrayE9setRegionEiiPKs
_ZN8facebook3jni15JPrimitiveArrayIP13_jdoubleArrayE11getElementsEPh
_ZN8facebook3jni15JPrimitiveArrayIP13_jdoubleArrayE15releaseElementsEPdi
_ZN8facebook3jni15JPrimitiveArrayIP13_jdoubleArrayE8newArrayEj
_ZN8facebook3jni15JPrimitiveArrayIP13_jdoubleArrayE9getRegionEiiPd
_ZN8facebook3jni15JPrimitiveArrayIP13_jdoubleArrayE9setRegionEiiPKd
_ZN8facebook3jni15JPrimitiveArrayIP14_jbooleanArrayE11getElementsEPh
_ZN8facebook3jni15JPrimitiveArrayIP14_jbooleanArrayE15releaseElementsEPhi
_ZN8facebook3jni15JPrimitiveArrayIP14_jbooleanArrayE8newArrayEj
_ZN8facebook3jni15JPrimitiveArrayIP14_jbooleanArrayE9getRegionEiiPh
_ZN8facebook3jni15JPrimitiveArrayIP14_jbooleanArrayE9setRegionEiiPKh
_ZN8facebook3jni15make_byte_arrayEi
_ZN8facebook3jni15make_char_arrayEi
_ZN8facebook3jni15make_long_arrayEi
_ZN8facebook3jni16make_float_arrayEi
_ZN8facebook3jni16make_short_arrayEi
_ZN8facebook3jni17make_double_arrayEi
_ZN8facebook3jni18make_boolean_arrayEi
_ZN8facebook3jni8internal14ReferenceStats5resetEv
_ZNK8facebook3jni7JString11toStdStringEv
_ZN8facebook3jni10JThrowable13getStackTraceEv
_ZN8facebook3jni10JThrowable13setStackTraceENS0_9alias_refINS0_11JArrayClassIPNS0_6detail8JTypeForINS0_18JStackTraceElementENS0_7JObjectEvE11_javaobjectEEEEE
_ZN8facebook3jni10JThrowable9initCauseENS0_9alias_refIS1_EE
_ZN8facebook3jni12JniExceptionC1ENS0_9alias_refIP11_jthrowableEE
_ZN8facebook3jni12JniExceptionC1EOS1_
_ZN8facebook3jni12JniExceptionC1ERKS1_
_ZN8facebook3jni12JniExceptionC1Ev
_ZN8facebook3jni12JniExceptionC2ENS0_9alias_refIP11_jthrowableEE
_ZN8facebook3jni12JniExceptionC2EOS1_
_ZN8facebook3jni12JniExceptionC2ERKS1_
_ZN8facebook3jni12JniExceptionC2Ev
_ZN8facebook3jni12JniExceptionD0Ev
_ZN8facebook3jni12JniExceptionD1Ev
_ZN8facebook3jni12JniExceptionD2Ev
_ZN8facebook3jni18JStackTraceElement6createERKSsS3_S3_i
_ZN8facebook3jni19throwCppExceptionIfEb
_ZN8facebook3jni21throwNewJavaExceptionEP11_jthrowable
_ZN8facebook3jni21throwNewJavaExceptionEPKcS2_
_ZN8facebook3jni31addCppStacktraceToJavaExceptionENS0_9alias_refINS0_10JThrowableEEENSt15__exception_ptr13exception_ptrE
_ZN8facebook3jni31getJavaExceptionForCppBackTraceEPKc
_ZN8facebook3jni31getJavaExceptionForCppBackTraceEv
_ZN8facebook3jni31getJavaExceptionForCppExceptionENSt15__exception_ptr13exception_ptrE
_ZN8facebook3jni34convertCppExceptionToJavaExceptionENSt15__exception_ptr13exception_ptrE
_ZN8facebook3jni38throwPendingJniExceptionAsCppExceptionEv
_ZN8facebook3jni43translatePendingCppExceptionToJavaExceptionEv
_ZNK8facebook3jni12JniException12getThrowableEv
_ZNK8facebook3jni12JniException12populateWhatEv
_ZNK8facebook3jni12JniException16setJavaExceptionEv
_ZNK8facebook3jni12JniException4whatEv
_ZNK8facebook3jni18JStackTraceElement11getFileNameEv
_ZNK8facebook3jni18JStackTraceElement12getClassNameEv
_ZNK8facebook3jni18JStackTraceElement13getLineNumberEv
_ZNK8facebook3jni18JStackTraceElement13getMethodNameEv
_ZN8facebook3jni11Environment10initializeEP7_JavaVM
_ZN8facebook3jni11Environment19detachCurrentThreadEv
_ZN8facebook3jni11Environment29ensureCurrentThreadIsAttachedEv
_ZN8facebook3jni11Environment7currentEv
_ZN8facebook3jni11ThreadScope15WithClassLoaderEOSt8functionIFvvEE
_ZN8facebook3jni11ThreadScope6OnLoadEv
_ZN8facebook3jni11ThreadScopeC1EP7_JNIEnvNS0_8internal11CacheEnvTagE
_ZN8facebook3jni11ThreadScopeC1Ev
_ZN8facebook3jni11ThreadScopeC2EP7_JNIEnvNS0_8internal11CacheEnvTagE
_ZN8facebook3jni11ThreadScopeC2Ev
_ZN8facebook3jni11ThreadScopeD1Ev
_ZN8facebook3jni11ThreadScopeD2Ev
_ZN8facebook3jni15CountableOnLoadEP7_JNIEnv
_ZN8facebook3jni17countableFromJavaEP7_JNIEnvP8_jobject
_ZN8facebook3jni19setCountableForJavaEP7_JNIEnvP8_jobjectONS_6RefPtrINS_9CountableEEE
_ZN8facebook3jni7disposeEP7_JNIEnvP8_jobject
_ZN8facebook3jni11JByteBuffer9wrapBytesEPhj
_ZNK8facebook3jni11JByteBuffer13getDirectSizeEv
_ZNK8facebook3jni11JByteBuffer14getDirectBytesEv
_ZNK8facebook3jni11JByteBuffer8isDirectEv